target datalayout = "e-m:e-p270:32:32-p271:32:32-p272:64:64-i64:64-i128:128-f80:128-n8:16:32:64-S128"
target triple = "x86_64-unknown-linux-gnu"

%struct.uv__queue = type { ptr, ptr }
%struct.uv_loop_s = type { ptr, i32, %struct.uv__queue, %union.anon.1, ptr, i32, i64, i32, %struct.uv__queue, %struct.uv__queue, ptr, i32, i32, %struct.uv__queue, %union.pthread_mutex_t, %struct.uv_async_s, %union.pthread_rwlock_t, ptr, %struct.uv__queue, %struct.uv__queue, %struct.uv__queue, %struct.uv__queue, %struct.uv__queue, ptr, %struct.uv__io_s, i32, %struct.anon, i64, i64, [2 x i32], %struct.uv__io_s, %struct.uv_signal_s, i32, %struct.uv__io_s, ptr, i32 }
%union.anon.1 = type { ptr }
%union.pthread_mutex_t = type { %struct.__pthread_mutex_s }
%struct.__pthread_mutex_s = type { i32, i32, i32, i32, i32, i16, i16, %struct.__pthread_internal_list }
%struct.__pthread_internal_list = type { ptr, ptr }
%struct.uv_async_s = type { ptr, ptr, i32, ptr, %struct.uv__queue, %union.anon.2, ptr, i32, ptr, %struct.uv__queue, i32 }
%union.anon.2 = type { [4 x ptr] }
%union.pthread_rwlock_t = type { %struct.__pthread_rwlock_arch_t }
%struct.__pthread_rwlock_arch_t = type { i32, i32, i32, i32, i32, i32, i32, i32, i8, [7 x i8], i64, i32 }
%struct.anon = type { ptr, i32 }
%struct.uv_signal_s = type { ptr, ptr, i32, ptr, %struct.uv__queue, %union.anon.3, ptr, i32, ptr, i32, %struct.anon.4, i32, i32 }
%union.anon.3 = type { [4 x ptr] }
%struct.anon.4 = type { ptr, ptr, ptr, i32 }
%struct.uv__io_s = type { ptr, %struct.uv__queue, %struct.uv__queue, i32, i32, i32 }
%struct.uv_prepare_s = type { ptr, ptr, i32, ptr, %struct.uv__queue, %union.anon, ptr, i32, ptr, %struct.uv__queue }
%union.anon = type { [4 x ptr] }

; Function Attrs: nounwind uwtable
define internal void @uv__queue_split(ptr noundef %h, ptr noundef %q, ptr noundef %n) #0 {
entry:
  %h.addr = alloca ptr, align 8
  %q.addr = alloca ptr, align 8
  %n.addr = alloca ptr, align 8
  store ptr %h, ptr %h.addr, align 8
  store ptr %q, ptr %q.addr, align 8
  store ptr %n, ptr %n.addr, align 8
  %0 = load ptr, ptr %h.addr, align 8
  %prev = getelementptr inbounds %struct.uv__queue, ptr %0, i32 0, i32 1
  %1 = load ptr, ptr %prev, align 8
  %2 = load ptr, ptr %n.addr, align 8
  %prev1 = getelementptr inbounds %struct.uv__queue, ptr %2, i32 0, i32 1
  store ptr %1, ptr %prev1, align 8
  %3 = load ptr, ptr %n.addr, align 8
  %4 = load ptr, ptr %n.addr, align 8
  %prev2 = getelementptr inbounds %struct.uv__queue, ptr %4, i32 0, i32 1
  %5 = load ptr, ptr %prev2, align 8
  %next = getelementptr inbounds %struct.uv__queue, ptr %5, i32 0, i32 0
  store ptr %3, ptr %next, align 8
  %6 = load ptr, ptr %q.addr, align 8
  %7 = load ptr, ptr %n.addr, align 8
  %next3 = getelementptr inbounds %struct.uv__queue, ptr %7, i32 0, i32 0
  store ptr %6, ptr %next3, align 8
  %8 = load ptr, ptr %q.addr, align 8
  %prev4 = getelementptr inbounds %struct.uv__queue, ptr %8, i32 0, i32 1
  %9 = load ptr, ptr %prev4, align 8
  %10 = load ptr, ptr %h.addr, align 8
  %prev5 = getelementptr inbounds %struct.uv__queue, ptr %10, i32 0, i32 1
  store ptr %9, ptr %prev5, align 8
  %11 = load ptr, ptr %h.addr, align 8
  %12 = load ptr, ptr %h.addr, align 8
  %prev6 = getelementptr inbounds %struct.uv__queue, ptr %12, i32 0, i32 1
  %13 = load ptr, ptr %prev6, align 8
  %next7 = getelementptr inbounds %struct.uv__queue, ptr %13, i32 0, i32 0
  store ptr %11, ptr %next7, align 8
  %14 = load ptr, ptr %n.addr, align 8
  %15 = load ptr, ptr %q.addr, align 8
  %prev8 = getelementptr inbounds %struct.uv__queue, ptr %15, i32 0, i32 1
  store ptr %14, ptr %prev8, align 8
  ret void
}

; Function Attrs: nounwind uwtable
define internal void @uv__queue_init(ptr noundef %q) #0 {
entry:
  %q.addr = alloca ptr, align 8
  store ptr %q, ptr %q.addr, align 8
  %0 = load ptr, ptr %q.addr, align 8
  %1 = load ptr, ptr %q.addr, align 8
  %next = getelementptr inbounds %struct.uv__queue, ptr %1, i32 0, i32 0
  store ptr %0, ptr %next, align 8
  %2 = load ptr, ptr %q.addr, align 8
  %3 = load ptr, ptr %q.addr, align 8
  %prev = getelementptr inbounds %struct.uv__queue, ptr %3, i32 0, i32 1
  store ptr %2, ptr %prev, align 8
  ret void
}

; Function Attrs: nounwind uwtable
define internal void @uv__queue_insert_tail(ptr noundef %h, ptr noundef %q) #0 {
entry:
  %h.addr = alloca ptr, align 8
  %q.addr = alloca ptr, align 8
  store ptr %h, ptr %h.addr, align 8
  store ptr %q, ptr %q.addr, align 8
  %0 = load ptr, ptr %h.addr, align 8
  %1 = load ptr, ptr %q.addr, align 8
  %next = getelementptr inbounds %struct.uv__queue, ptr %1, i32 0, i32 0
  store ptr %0, ptr %next, align 8
  %2 = load ptr, ptr %h.addr, align 8
  %prev = getelementptr inbounds %struct.uv__queue, ptr %2, i32 0, i32 1
  %3 = load ptr, ptr %prev, align 8
  %4 = load ptr, ptr %q.addr, align 8
  %prev1 = getelementptr inbounds %struct.uv__queue, ptr %4, i32 0, i32 1
  store ptr %3, ptr %prev1, align 8
  %5 = load ptr, ptr %q.addr, align 8
  %6 = load ptr, ptr %q.addr, align 8
  %prev2 = getelementptr inbounds %struct.uv__queue, ptr %6, i32 0, i32 1
  %7 = load ptr, ptr %prev2, align 8
  %next3 = getelementptr inbounds %struct.uv__queue, ptr %7, i32 0, i32 0
  store ptr %5, ptr %next3, align 8
  %8 = load ptr, ptr %q.addr, align 8
  %9 = load ptr, ptr %h.addr, align 8
  %prev4 = getelementptr inbounds %struct.uv__queue, ptr %9, i32 0, i32 1
  store ptr %8, ptr %prev4, align 8
  ret void
}

; Function Attrs: nounwind uwtable
define internal void @uv__queue_remove(ptr noundef %q) #0 {
entry:
  %q.addr = alloca ptr, align 8
  store ptr %q, ptr %q.addr, align 8
  %0 = load ptr, ptr %q.addr, align 8
  %next = getelementptr inbounds %struct.uv__queue, ptr %0, i32 0, i32 0
  %1 = load ptr, ptr %next, align 8
  %2 = load ptr, ptr %q.addr, align 8
  %prev = getelementptr inbounds %struct.uv__queue, ptr %2, i32 0, i32 1
  %3 = load ptr, ptr %prev, align 8
  %next1 = getelementptr inbounds %struct.uv__queue, ptr %3, i32 0, i32 0
  store ptr %1, ptr %next1, align 8
  %4 = load ptr, ptr %q.addr, align 8
  %prev2 = getelementptr inbounds %struct.uv__queue, ptr %4, i32 0, i32 1
  %5 = load ptr, ptr %prev2, align 8
  %6 = load ptr, ptr %q.addr, align 8
  %next3 = getelementptr inbounds %struct.uv__queue, ptr %6, i32 0, i32 0
  %7 = load ptr, ptr %next3, align 8
  %prev4 = getelementptr inbounds %struct.uv__queue, ptr %7, i32 0, i32 1
  store ptr %5, ptr %prev4, align 8
  ret void
}

; Function Attrs: nounwind uwtable
define internal ptr @uv__queue_head(ptr noundef %q) #0 {
entry:
  %q.addr = alloca ptr, align 8
  store ptr %q, ptr %q.addr, align 8
  %0 = load ptr, ptr %q.addr, align 8
  %next = getelementptr inbounds %struct.uv__queue, ptr %0, i32 0, i32 0
  %1 = load ptr, ptr %next, align 8
  ret ptr %1
}

; Function Attrs: nounwind uwtable
define internal i32 @uv__queue_empty(ptr noundef %q) #0 {
entry:
  %q.addr = alloca ptr, align 8
  store ptr %q, ptr %q.addr, align 8
  %0 = load ptr, ptr %q.addr, align 8
  %1 = load ptr, ptr %q.addr, align 8
  %next = getelementptr inbounds %struct.uv__queue, ptr %1, i32 0, i32 0
  %2 = load ptr, ptr %next, align 8
  %cmp = icmp eq ptr %0, %2
  %conv = zext i1 %cmp to i32
  ret i32 %conv
}

; Function Attrs: nounwind uwtable
define internal void @uv__queue_move(ptr noundef %h, ptr noundef %n) #0 {
entry:
  %h.addr = alloca ptr, align 8
  %n.addr = alloca ptr, align 8
  store ptr %h, ptr %h.addr, align 8
  store ptr %n, ptr %n.addr, align 8
  %0 = load ptr, ptr %h.addr, align 8
  %call = call i32 @uv__queue_empty(ptr noundef %0)
  %tobool = icmp ne i32 %call, 0
  br i1 %tobool, label %if.then, label %if.else

if.then:                                          ; preds = %entry
  %1 = load ptr, ptr %n.addr, align 8
  call void @uv__queue_init(ptr noundef %1)
  br label %if.end

if.else:                                          ; preds = %entry
  %2 = load ptr, ptr %h.addr, align 8
  %3 = load ptr, ptr %h.addr, align 8
  %next = getelementptr inbounds %struct.uv__queue, ptr %3, i32 0, i32 0
  %4 = load ptr, ptr %next, align 8
  %5 = load ptr, ptr %n.addr, align 8
  call void @uv__queue_split(ptr noundef %2, ptr noundef %4, ptr noundef %5)
  br label %if.end

if.end:                                           ; preds = %if.else, %if.then
  ret void
}

; Function Attrs: nounwind uwtable
define hidden void @uv__run_prepare(ptr noundef %loop) #0 {
entry:
  %loop.addr = alloca ptr, align 8
  %h = alloca ptr, align 8
  %queue = alloca %struct.uv__queue, align 8
  %q = alloca ptr, align 8
  store ptr %loop, ptr %loop.addr, align 8
  %0 = load ptr, ptr %loop.addr, align 8
  %prepare_handles = getelementptr inbounds %struct.uv_loop_s, ptr %0, i32 0, i32 19
  call void @uv__queue_move(ptr noundef %prepare_handles, ptr noundef %queue)
  br label %while.cond

while.cond:                                       ; preds = %while.body, %entry
  %call = call i32 @uv__queue_empty(ptr noundef %queue)
  %tobool = icmp ne i32 %call, 0
  %lnot = xor i1 %tobool, true
  br i1 %lnot, label %while.body, label %while.end

while.body:                                       ; preds = %while.cond
  %call1 = call ptr @uv__queue_head(ptr noundef %queue)
  store ptr %call1, ptr %q, align 8
  %1 = load ptr, ptr %q, align 8
  %add.ptr = getelementptr inbounds i8, ptr %1, i64 -104
  store ptr %add.ptr, ptr %h, align 8
  %2 = load ptr, ptr %q, align 8
  call void @uv__queue_remove(ptr noundef %2)
  %3 = load ptr, ptr %loop.addr, align 8
  %prepare_handles2 = getelementptr inbounds %struct.uv_loop_s, ptr %3, i32 0, i32 19
  %4 = load ptr, ptr %q, align 8
  call void @uv__queue_insert_tail(ptr noundef %prepare_handles2, ptr noundef %4)
  %5 = load ptr, ptr %h, align 8
  %prepare_cb = getelementptr inbounds %struct.uv_prepare_s, ptr %5, i32 0, i32 8
  %6 = load ptr, ptr %prepare_cb, align 8
  %7 = load ptr, ptr %h, align 8
  call void %6(ptr noundef %7)
  br label %while.cond

while.end:                                        ; preds = %while.cond
  ret void
}